; Function Attrs: mustprogress uwtable
define noundef nonnull align 8 dereferenceable(64) ptr @_ZNK6icu_7713DecimalFormat17getNegativePrefixERNS_13UnicodeStringE(ptr noundef nonnull readonly align 8 captures(none) dereferenceable(72) %0, ptr noundef nonnull returned align 8 dereferenceable(64) %1) local_unnamed_addr #1 align 2 {
  %3 = alloca i32, align 4
  %4 = getelementptr inbounds nuw i8, ptr %0, i64 64
  %5 = load ptr, ptr %4, align 8, !tbaa !25
  %6 = icmp eq ptr %5, null
  br i1 %6, label %7, label %8

7:                                                ; preds = %2
  tail call void @_ZN6icu_7713UnicodeString10setToBogusEv(ptr noundef nonnull align 8 dereferenceable(64) %1)
  br label %14

8:                                                ; preds = %2
  call void @llvm.lifetime.start.p0(i64 4, ptr nonnull %3) #19
  store i32 0, ptr %3, align 4, !tbaa !13
  %9 = getelementptr inbounds nuw i8, ptr %5, i64 776
  call void @_ZNK6icu_776number24LocalizedNumberFormatter12getAffixImplEbbRNS_13UnicodeStringER10UErrorCode(ptr noundef nonnull align 8 dereferenceable(496) %9, i1 noundef zeroext true, i1 noundef zeroext true, ptr noundef nonnull align 8 dereferenceable(64) %1, ptr noundef nonnull align 4 dereferenceable(4) %3)
  %10 = load i32, ptr %3, align 4, !tbaa !13
  %11 = icmp slt i32 %10, 1
  br i1 %11, label %13, label %12

12:                                               ; preds = %8
  call void @_ZN6icu_7713UnicodeString10setToBogusEv(ptr noundef nonnull align 8 dereferenceable(64) %1)
  br label %13

13:                                               ; preds = %12, %8
  call void @llvm.lifetime.end.p0(i64 4, ptr nonnull %3) #19
  br label %14

14:                                               ; preds = %13, %7
  ret ptr %1
}